target datalayout = "e-m:e-p270:32:32-p271:32:32-p272:64:64-i64:64-i128:128-f80:128-n8:16:32:64-S128"
target triple = "x86_64-pc-linux-gnu"

%struct._ftype_t = type { i32, i32, ptr, ptr, ptr, ptr, ptr, ptr, ptr, ptr, ptr, ptr, ptr, ptr, ptr, %union.anon, %union.anon.0, ptr, ptr, ptr, ptr, ptr, ptr, ptr, ptr, ptr, ptr, ptr, ptr, ptr, ptr, ptr }
%union.anon = type { ptr }
%union.anon.0 = type { ptr }
%struct._fvalue_t = type { ptr, %union.anon.1 }
%union.anon.1 = type { %struct._protocol_value_t }
%struct._protocol_value_t = type { ptr, i32, ptr, i8 }

@type_list = hidden global [48 x ptr] zeroinitializer, align 16
@.str.3 = private unnamed_addr constant [7 x i8] c"(null)\00", align 1
@.str.52 = private unnamed_addr constant [6 x i8] c"Label\00", align 1
@.str.53 = private unnamed_addr constant [9 x i8] c"Protocol\00", align 1
@.str.54 = private unnamed_addr constant [8 x i8] c"Boolean\00", align 1
@.str.55 = private unnamed_addr constant [19 x i8] c"Character (8 bits)\00", align 1
@.str.56 = private unnamed_addr constant [26 x i8] c"Unsigned integer (8 bits)\00", align 1
@.str.57 = private unnamed_addr constant [27 x i8] c"Unsigned integer (16 bits)\00", align 1
@.str.58 = private unnamed_addr constant [27 x i8] c"Unsigned integer (24 bits)\00", align 1
@.str.59 = private unnamed_addr constant [27 x i8] c"Unsigned integer (32 bits)\00", align 1
@.str.60 = private unnamed_addr constant [27 x i8] c"Unsigned integer (40 bits)\00", align 1
@.str.61 = private unnamed_addr constant [27 x i8] c"Unsigned integer (48 bits)\00", align 1
@.str.62 = private unnamed_addr constant [27 x i8] c"Unsigned integer (56 bits)\00", align 1
@.str.63 = private unnamed_addr constant [27 x i8] c"Unsigned integer (64 bits)\00", align 1
@.str.64 = private unnamed_addr constant [24 x i8] c"Signed integer (8 bits)\00", align 1
@.str.65 = private unnamed_addr constant [25 x i8] c"Signed integer (16 bits)\00", align 1
@.str.66 = private unnamed_addr constant [25 x i8] c"Signed integer (24 bits)\00", align 1
@.str.67 = private unnamed_addr constant [25 x i8] c"Signed integer (32 bits)\00", align 1
@.str.68 = private unnamed_addr constant [25 x i8] c"Signed integer (40 bits)\00", align 1
@.str.69 = private unnamed_addr constant [25 x i8] c"Signed integer (48 bits)\00", align 1
@.str.70 = private unnamed_addr constant [25 x i8] c"Signed integer (56 bits)\00", align 1
@.str.71 = private unnamed_addr constant [25 x i8] c"Signed integer (64 bits)\00", align 1
@.str.72 = private unnamed_addr constant [35 x i8] c"IEEE-11073 floating point (16-bit)\00", align 1
@.str.73 = private unnamed_addr constant [35 x i8] c"IEEE-11073 Floating point (32-bit)\00", align 1
@.str.74 = private unnamed_addr constant [34 x i8] c"Floating point (single-precision)\00", align 1
@.str.75 = private unnamed_addr constant [34 x i8] c"Floating point (double-precision)\00", align 1
@.str.76 = private unnamed_addr constant [14 x i8] c"Date and time\00", align 1
@.str.77 = private unnamed_addr constant [12 x i8] c"Time offset\00", align 1
@.str.78 = private unnamed_addr constant [17 x i8] c"Character string\00", align 1
@.str.79 = private unnamed_addr constant [30 x i8] c"Ethernet or other MAC address\00", align 1
@.str.80 = private unnamed_addr constant [14 x i8] c"Byte sequence\00", align 1
@.str.81 = private unnamed_addr constant [13 x i8] c"IPv4 address\00", align 1
@.str.82 = private unnamed_addr constant [13 x i8] c"IPv6 address\00", align 1
@.str.83 = private unnamed_addr constant [19 x i8] c"IPX network number\00", align 1
@.str.84 = private unnamed_addr constant [13 x i8] c"Frame number\00", align 1
@.str.85 = private unnamed_addr constant [27 x i8] c"Globally Unique Identifier\00", align 1
@.str.86 = private unnamed_addr constant [24 x i8] c"ASN.1 object identifier\00", align 1
@.str.87 = private unnamed_addr constant [14 x i8] c"EUI64 address\00", align 1
@.str.88 = private unnamed_addr constant [14 x i8] c"AX.25 address\00", align 1
@.str.89 = private unnamed_addr constant [14 x i8] c"VINES address\00", align 1
@.str.90 = private unnamed_addr constant [33 x i8] c"ASN.1 relative object identifier\00", align 1
@.str.91 = private unnamed_addr constant [14 x i8] c"OSI System-ID\00", align 1
@.str.92 = private unnamed_addr constant [18 x i8] c"Fibre Channel WWN\00", align 1
@.str.93 = private unnamed_addr constant [12 x i8] c"(num types)\00", align 1
@.str.94 = private unnamed_addr constant [7 x i8] c"Scalar\00", align 1
@.str.101 = private unnamed_addr constant [37 x i8] c"Double %g cannot be converted to %s.\00", align 1

; Function Attrs: null_pointer_is_valid sspstrong uwtable
define void @fvalue_cleanup(ptr noundef %0) #0 {
  %2 = alloca ptr, align 8
  store ptr %0, ptr %2, align 8
  %3 = load ptr, ptr %2, align 8
  %4 = getelementptr inbounds nuw %struct._fvalue_t, ptr %3, i32 0, i32 0
  %5 = load ptr, ptr %4, align 8
  %6 = getelementptr inbounds nuw %struct._ftype_t, ptr %5, i32 0, i32 4
  %7 = load ptr, ptr %6, align 8
  %8 = icmp ne ptr %7, null
  br i1 %8, label %10, label %9

9:                                                ; preds = %1
  br label %17

10:                                               ; preds = %1
  %11 = load ptr, ptr %2, align 8
  %12 = getelementptr inbounds nuw %struct._fvalue_t, ptr %11, i32 0, i32 0
  %13 = load ptr, ptr %12, align 8
  %14 = getelementptr inbounds nuw %struct._ftype_t, ptr %13, i32 0, i32 4
  %15 = load ptr, ptr %14, align 8
  %16 = load ptr, ptr %2, align 8
  call void %15(ptr noundef %16)
  br label %17

17:                                               ; preds = %10, %9
  ret void
}

; Function Attrs: null_pointer_is_valid sspstrong uwtable
define void @fvalue_free(ptr noundef %0) #0 {
  %2 = alloca ptr, align 8
  store ptr %0, ptr %2, align 8
  %3 = load ptr, ptr %2, align 8
  call void @fvalue_cleanup(ptr noundef %3)
  br label %4

4:                                                ; preds = %1
  %5 = load ptr, ptr %2, align 8
  call void @g_slice_free1(i64 noundef 40, ptr noundef %5)
  br label %6

6:                                                ; preds = %4
  ret void
}

; Function Attrs: nounwind null_pointer_is_valid sspstrong uwtable
define ptr @ftype_pretty_name(i32 noundef %0) #2 {
  %2 = alloca i32, align 4
  %3 = alloca ptr, align 8
  %4 = alloca ptr, align 8
  store i32 %0, ptr %2, align 4
  call void @llvm.lifetime.start.p0(i64 8, ptr %3) #9
  call void @llvm.lifetime.start.p0(i64 8, ptr %4) #9
  store ptr @.str.3, ptr %4, align 8
  br label %5

5:                                                ; preds = %1
  br label %6

6:                                                ; preds = %5
  br label %7

7:                                                ; preds = %6
  %8 = load i32, ptr %2, align 4
  %9 = zext i32 %8 to i64
  %10 = getelementptr [48 x ptr], ptr @type_list, i64 0, i64 %9
  %11 = load ptr, ptr %10, align 8
  store ptr %11, ptr %3, align 8
  %12 = load ptr, ptr %3, align 8
  %13 = getelementptr inbounds nuw %struct._ftype_t, ptr %12, i32 0, i32 0
  %14 = load i32, ptr %13, align 8
  switch i32 %14, label %63 [
    i32 0, label %15
    i32 1, label %16
    i32 2, label %17
    i32 3, label %18
    i32 4, label %19
    i32 5, label %20
    i32 6, label %21
    i32 7, label %22
    i32 8, label %23
    i32 9, label %24
    i32 10, label %25
    i32 11, label %26
    i32 12, label %27
    i32 13, label %28
    i32 14, label %29
    i32 15, label %30
    i32 16, label %31
    i32 17, label %32
    i32 18, label %33
    i32 19, label %34
    i32 20, label %35
    i32 21, label %36
    i32 22, label %37
    i32 23, label %38
    i32 24, label %39
    i32 25, label %40
    i32 26, label %41
    i32 27, label %42
    i32 28, label %43
    i32 29, label %44
    i32 30, label %45
    i32 31, label %46
    i32 32, label %47
    i32 33, label %48
    i32 34, label %49
    i32 35, label %50
    i32 36, label %51
    i32 37, label %52
    i32 38, label %53
    i32 39, label %54
    i32 40, label %55
    i32 41, label %56
    i32 42, label %57
    i32 43, label %58
    i32 44, label %59
    i32 45, label %60
    i32 46, label %61
    i32 47, label %62
  ]

15:                                               ; preds = %7
  store ptr @.str.52, ptr %4, align 8
  br label %63

16:                                               ; preds = %7
  store ptr @.str.53, ptr %4, align 8
  br label %63

17:                                               ; preds = %7
  store ptr @.str.54, ptr %4, align 8
  br label %63

18:                                               ; preds = %7
  store ptr @.str.55, ptr %4, align 8
  br label %63

19:                                               ; preds = %7
  store ptr @.str.56, ptr %4, align 8
  br label %63

20:                                               ; preds = %7
  store ptr @.str.57, ptr %4, align 8
  br label %63

21:                                               ; preds = %7
  store ptr @.str.58, ptr %4, align 8
  br label %63

22:                                               ; preds = %7
  store ptr @.str.59, ptr %4, align 8
  br label %63

23:                                               ; preds = %7
  store ptr @.str.60, ptr %4, align 8
  br label %63

24:                                               ; preds = %7
  store ptr @.str.61, ptr %4, align 8
  br label %63

25:                                               ; preds = %7
  store ptr @.str.62, ptr %4, align 8
  br label %63

26:                                               ; preds = %7
  store ptr @.str.63, ptr %4, align 8
  br label %63

27:                                               ; preds = %7
  store ptr @.str.64, ptr %4, align 8
  br label %63

28:                                               ; preds = %7
  store ptr @.str.65, ptr %4, align 8
  br label %63

29:                                               ; preds = %7
  store ptr @.str.66, ptr %4, align 8
  br label %63

30:                                               ; preds = %7
  store ptr @.str.67, ptr %4, align 8
  br label %63

31:                                               ; preds = %7
  store ptr @.str.68, ptr %4, align 8
  br label %63

32:                                               ; preds = %7
  store ptr @.str.69, ptr %4, align 8
  br label %63

33:                                               ; preds = %7
  store ptr @.str.70, ptr %4, align 8
  br label %63

34:                                               ; preds = %7
  store ptr @.str.71, ptr %4, align 8
  br label %63

35:                                               ; preds = %7
  store ptr @.str.72, ptr %4, align 8
  br label %63

36:                                               ; preds = %7
  store ptr @.str.73, ptr %4, align 8
  br label %63

37:                                               ; preds = %7
  store ptr @.str.74, ptr %4, align 8
  br label %63

38:                                               ; preds = %7
  store ptr @.str.75, ptr %4, align 8
  br label %63

39:                                               ; preds = %7
  store ptr @.str.76, ptr %4, align 8
  br label %63

40:                                               ; preds = %7
  store ptr @.str.77, ptr %4, align 8
  br label %63

41:                                               ; preds = %7
  store ptr @.str.78, ptr %4, align 8
  br label %63

42:                                               ; preds = %7
  store ptr @.str.78, ptr %4, align 8
  br label %63

43:                                               ; preds = %7
  store ptr @.str.78, ptr %4, align 8
  br label %63

44:                                               ; preds = %7
  store ptr @.str.79, ptr %4, align 8
  br label %63

45:                                               ; preds = %7
  store ptr @.str.80, ptr %4, align 8
  br label %63

46:                                               ; preds = %7
  store ptr @.str.80, ptr %4, align 8
  br label %63

47:                                               ; preds = %7
  store ptr @.str.81, ptr %4, align 8
  br label %63

48:                                               ; preds = %7
  store ptr @.str.82, ptr %4, align 8
  br label %63

49:                                               ; preds = %7
  store ptr @.str.83, ptr %4, align 8
  br label %63

50:                                               ; preds = %7
  store ptr @.str.84, ptr %4, align 8
  br label %63

51:                                               ; preds = %7
  store ptr @.str.85, ptr %4, align 8
  br label %63

52:                                               ; preds = %7
  store ptr @.str.86, ptr %4, align 8
  br label %63

53:                                               ; preds = %7
  store ptr @.str.87, ptr %4, align 8
  br label %63

54:                                               ; preds = %7
  store ptr @.str.88, ptr %4, align 8
  br label %63

55:                                               ; preds = %7
  store ptr @.str.89, ptr %4, align 8
  br label %63

56:                                               ; preds = %7
  store ptr @.str.90, ptr %4, align 8
  br label %63

57:                                               ; preds = %7
  store ptr @.str.91, ptr %4, align 8
  br label %63

58:                                               ; preds = %7
  store ptr @.str.78, ptr %4, align 8
  br label %63

59:                                               ; preds = %7
  store ptr @.str.92, ptr %4, align 8
  br label %63

60:                                               ; preds = %7
  store ptr @.str.78, ptr %4, align 8
  br label %63

61:                                               ; preds = %7
  store ptr @.str.93, ptr %4, align 8
  br label %63

62:                                               ; preds = %7
  store ptr @.str.94, ptr %4, align 8
  br label %63

63:                                               ; preds = %7, %62, %61, %60, %59, %58, %57, %56, %55, %54, %53, %52, %51, %50, %49, %48, %47, %46, %45, %44, %43, %42, %41, %40, %39, %38, %37, %36, %35, %34, %33, %32, %31, %30, %29, %28, %27, %26, %25, %24, %23, %22, %21, %20, %19, %18, %17, %16, %15
  %64 = load ptr, ptr %4, align 8
  call void @llvm.lifetime.end.p0(i64 8, ptr %4) #9
  call void @llvm.lifetime.end.p0(i64 8, ptr %3) #9
  ret ptr %64
}

; Function Attrs: null_pointer_is_valid sspstrong uwtable
define ptr @fvalue_new(i32 noundef %0) #0 {
  %2 = alloca i32, align 4
  %3 = alloca ptr, align 8
  %4 = alloca ptr, align 8
  %5 = alloca ptr, align 8
  store i32 %0, ptr %2, align 4
  call void @llvm.lifetime.start.p0(i64 8, ptr %3) #9
  call void @llvm.lifetime.start.p0(i64 8, ptr %4) #9
  call void @llvm.lifetime.start.p0(i64 8, ptr %5) #9
  %6 = call noalias ptr @g_slice_alloc(i64 noundef 40) #10
  store ptr %6, ptr %3, align 8
  br label %7

7:                                                ; preds = %1
  br label %8

8:                                                ; preds = %7
  br label %9

9:                                                ; preds = %8
  %10 = load i32, ptr %2, align 4
  %11 = zext i32 %10 to i64
  %12 = getelementptr [48 x ptr], ptr @type_list, i64 0, i64 %11
  %13 = load ptr, ptr %12, align 8
  store ptr %13, ptr %4, align 8
  %14 = load ptr, ptr %4, align 8
  %15 = load ptr, ptr %3, align 8
  %16 = getelementptr inbounds nuw %struct._fvalue_t, ptr %15, i32 0, i32 0
  store ptr %14, ptr %16, align 8
  %17 = load ptr, ptr %4, align 8
  %18 = getelementptr inbounds nuw %struct._ftype_t, ptr %17, i32 0, i32 2
  %19 = load ptr, ptr %18, align 8
  store ptr %19, ptr %5, align 8
  %20 = load ptr, ptr %5, align 8
  %21 = icmp ne ptr %20, null
  br i1 %21, label %22, label %25

22:                                               ; preds = %9
  %23 = load ptr, ptr %5, align 8
  %24 = load ptr, ptr %3, align 8
  call void %23(ptr noundef %24)
  br label %25

25:                                               ; preds = %22, %9
  %26 = load ptr, ptr %3, align 8
  call void @llvm.lifetime.end.p0(i64 8, ptr %5) #9
  call void @llvm.lifetime.end.p0(i64 8, ptr %4) #9
  call void @llvm.lifetime.end.p0(i64 8, ptr %3) #9
  ret ptr %26
}

; Function Attrs: null_pointer_is_valid sspstrong uwtable
define hidden ptr @fvalue_from_floating(i32 noundef %0, ptr noundef %1, double noundef %2, ptr noundef %3) #0 {
  %5 = alloca ptr, align 8
  %6 = alloca i32, align 4
  %7 = alloca ptr, align 8
  %8 = alloca double, align 8
  %9 = alloca ptr, align 8
  %10 = alloca ptr, align 8
  %11 = alloca i32, align 4
  store i32 %0, ptr %6, align 4
  store ptr %1, ptr %7, align 8
  store double %2, ptr %8, align 8
  store ptr %3, ptr %9, align 8
  call void @llvm.lifetime.start.p0(i64 8, ptr %10) #9
  %12 = load i32, ptr %6, align 4
  %13 = call ptr @fvalue_new(i32 noundef %12)
  store ptr %13, ptr %10, align 8
  %14 = load ptr, ptr %10, align 8
  %15 = getelementptr inbounds nuw %struct._fvalue_t, ptr %14, i32 0, i32 0
  %16 = load ptr, ptr %15, align 8
  %17 = getelementptr inbounds nuw %struct._ftype_t, ptr %16, i32 0, i32 10
  %18 = load ptr, ptr %17, align 8
  %19 = icmp ne ptr %18, null
  br i1 %19, label %20, label %38

20:                                               ; preds = %4
  %21 = load ptr, ptr %10, align 8
  %22 = getelementptr inbounds nuw %struct._fvalue_t, ptr %21, i32 0, i32 0
  %23 = load ptr, ptr %22, align 8
  %24 = getelementptr inbounds nuw %struct._ftype_t, ptr %23, i32 0, i32 10
  %25 = load ptr, ptr %24, align 8
  %26 = load ptr, ptr %10, align 8
  %27 = load ptr, ptr %7, align 8
  %28 = load double, ptr %8, align 8
  %29 = load ptr, ptr %9, align 8
  %30 = call zeroext i1 %25(ptr noundef %26, ptr noundef %27, double noundef %28, ptr noundef %29)
  br i1 %30, label %31, label %38

31:                                               ; preds = %20
  %32 = load ptr, ptr %9, align 8
  %33 = icmp ne ptr %32, null
  br i1 %33, label %34, label %36

34:                                               ; preds = %31
  %35 = load ptr, ptr %9, align 8
  store ptr null, ptr %35, align 8
  br label %36

36:                                               ; preds = %34, %31
  %37 = load ptr, ptr %10, align 8
  store ptr %37, ptr %5, align 8
  store i32 1, ptr %11, align 4
  br label %54

38:                                               ; preds = %20, %4
  %39 = load ptr, ptr %9, align 8
  %40 = icmp ne ptr %39, null
  br i1 %40, label %41, label %51

41:                                               ; preds = %38
  %42 = load ptr, ptr %9, align 8
  %43 = load ptr, ptr %42, align 8
  %44 = icmp eq ptr %43, null
  br i1 %44, label %45, label %51

45:                                               ; preds = %41
  %46 = load double, ptr %8, align 8
  %47 = load i32, ptr %6, align 4
  %48 = call ptr @ftype_pretty_name(i32 noundef %47)
  %49 = call noalias ptr (ptr, ptr, ...) @wmem_strdup_printf(ptr noundef null, ptr noundef @.str.101, double noundef %46, ptr noundef %48)
  %50 = load ptr, ptr %9, align 8
  store ptr %49, ptr %50, align 8
  br label %51

51:                                               ; preds = %45, %41, %38
  br label %52

52:                                               ; preds = %51
  %53 = load ptr, ptr %10, align 8
  call void @fvalue_free(ptr noundef %53)
  store ptr null, ptr %5, align 8
  store i32 1, ptr %11, align 4
  br label %54

54:                                               ; preds = %52, %36
  call void @llvm.lifetime.end.p0(i64 8, ptr %10) #9
  %55 = load ptr, ptr %5, align 8
  ret ptr %55
}